target datalayout = "e-m:e-p270:32:32-p271:32:32-p272:64:64-i64:64-i128:128-f80:128-n8:16:32:64-S128"
target triple = "x86_64-pc-linux-gnu"

%struct.expert_field = type { i32, i32 }

@hf_ansi_637_trans_tele_id = internal global i32 0, align 4
@ei_ansi_637_unexpected_length = internal global %struct.expert_field zeroinitializer, align 4
@.str.326 = private unnamed_addr constant [25 x i8] c"Reserved for maintenance\00", align 1
@.str.327 = private unnamed_addr constant [53 x i8] c"CDMA Service Category Programming Teleservice (SCPT)\00", align 1
@.str.328 = private unnamed_addr constant [59 x i8] c"CDMA Card Application Toolkit Protocol Teleservice (CATPT)\00", align 1
@.str.329 = private unnamed_addr constant [36 x i8] c"TDMA Cellular Messaging Teleservice\00", align 1
@.str.330 = private unnamed_addr constant [43 x i8] c"TDMA Cellular Paging Teleservice (CPT-136)\00", align 1
@.str.331 = private unnamed_addr constant [48 x i8] c"TDMA Over-the-Air Activation Teleservice (OATS)\00", align 1
@.str.332 = private unnamed_addr constant [66 x i8] c"TDMA System Assisted Mobile Positioning through Satellite (SAMPS)\00", align 1
@.str.333 = private unnamed_addr constant [58 x i8] c"TDMA Segmented System Assisted Mobile Positioning Service\00", align 1
@.str.334 = private unnamed_addr constant [34 x i8] c"Reserved for assignment by TIA-41\00", align 1
@.str.335 = private unnamed_addr constant [38 x i8] c"Reserved for GSM1x Teleservice (CDMA)\00", align 1
@.str.336 = private unnamed_addr constant [64 x i8] c"Reserved for assignment by this Standard for TDMA MS-based SMEs\00", align 1
@.str.337 = private unnamed_addr constant [43 x i8] c"Reserved for carrier specific teleservices\00", align 1
@.str.338 = private unnamed_addr constant [28 x i8] c"Unrecognized Teleservice ID\00", align 1
@ansi_637_trans_tele_id = internal global i32 0, align 4
@.str.342 = private unnamed_addr constant [8 x i8] c"%s (%u)\00", align 1
@.str.418 = private unnamed_addr constant [11 x i8] c" - %s (%u)\00", align 1

; Function Attrs: null_pointer_is_valid sspstrong uwtable
define internal void @trans_param_tele_id(ptr noundef %0, ptr noundef %1, ptr noundef %2, i32 noundef %3, i32 noundef %4, ptr noundef %5, i32 noundef %6) #0 {
  %8 = alloca ptr, align 8
  %9 = alloca ptr, align 8
  %10 = alloca ptr, align 8
  %11 = alloca i32, align 4
  %12 = alloca i32, align 4
  %13 = alloca ptr, align 8
  %14 = alloca i32, align 4
  %15 = alloca i32, align 4
  %16 = alloca ptr, align 8
  %17 = alloca i32, align 4
  store ptr %0, ptr %8, align 8
  store ptr %1, ptr %9, align 8
  store ptr %2, ptr %10, align 8
  store i32 %3, ptr %11, align 4
  store i32 %4, ptr %12, align 4
  store ptr %5, ptr %13, align 8
  store i32 %6, ptr %14, align 4
  call void @llvm.lifetime.start.p0(i64 4, ptr %15) #7
  call void @llvm.lifetime.start.p0(i64 8, ptr %16) #7
  store ptr null, ptr %16, align 8
  %18 = load i32, ptr %11, align 4
  %19 = icmp ne i32 %18, 2
  br i1 %19, label %20, label %27

20:                                               ; preds = %7
  %21 = load ptr, ptr %10, align 8
  %22 = load ptr, ptr %9, align 8
  %23 = load ptr, ptr %8, align 8
  %24 = load i32, ptr %12, align 4
  %25 = load i32, ptr %11, align 4
  %26 = call ptr @proto_tree_add_expert(ptr noundef %21, ptr noundef %22, ptr noundef @ei_ansi_637_unexpected_length, ptr noundef %23, i32 noundef %24, i32 noundef %25)
  store i32 1, ptr %17, align 4
  br label %106

27:                                               ; preds = %7
  %28 = load ptr, ptr %8, align 8
  %29 = load i32, ptr %12, align 4
  %30 = call zeroext i16 @tvb_get_ntohs(ptr noundef %28, i32 noundef %29)
  %31 = zext i16 %30 to i32
  store i32 %31, ptr %15, align 4
  %32 = load i32, ptr %15, align 4
  store i32 %32, ptr @ansi_637_trans_tele_id, align 4
  %33 = load i32, ptr %15, align 4
  %34 = call ptr @try_val_to_str(i32 noundef %33, ptr noundef @ansi_tele_id_strings)
  store ptr %34, ptr %16, align 8
  %35 = load ptr, ptr %16, align 8
  %36 = icmp eq ptr null, %35
  br i1 %36, label %37, label %89

37:                                               ; preds = %27
  %38 = load i32, ptr %15, align 4
  switch i32 %38, label %47 [
    i32 1, label %39
    i32 4102, label %40
    i32 4103, label %41
    i32 32513, label %42
    i32 32514, label %43
    i32 32515, label %44
    i32 32520, label %45
    i32 32584, label %46
  ]

39:                                               ; preds = %37
  store ptr @.str.326, ptr %16, align 8
  br label %88

40:                                               ; preds = %37
  store ptr @.str.327, ptr %16, align 8
  br label %88

41:                                               ; preds = %37
  store ptr @.str.328, ptr %16, align 8
  br label %88

42:                                               ; preds = %37
  store ptr @.str.329, ptr %16, align 8
  br label %88

43:                                               ; preds = %37
  store ptr @.str.330, ptr %16, align 8
  br label %88

44:                                               ; preds = %37
  store ptr @.str.331, ptr %16, align 8
  br label %88

45:                                               ; preds = %37
  store ptr @.str.332, ptr %16, align 8
  br label %88

46:                                               ; preds = %37
  store ptr @.str.333, ptr %16, align 8
  br label %88

47:                                               ; preds = %37
  %48 = load i32, ptr %15, align 4
  %49 = icmp uge i32 %48, 2
  br i1 %49, label %50, label %54

50:                                               ; preds = %47
  %51 = load i32, ptr %15, align 4
  %52 = icmp ule i32 %51, 4095
  br i1 %52, label %53, label %54

53:                                               ; preds = %50
  store ptr @.str.334, ptr %16, align 8
  br label %87

54:                                               ; preds = %50, %47
  %55 = load i32, ptr %15, align 4
  %56 = icmp uge i32 %55, 4104
  br i1 %56, label %57, label %61

57:                                               ; preds = %54
  %58 = load i32, ptr %15, align 4
  %59 = icmp ule i32 %58, 4113
  br i1 %59, label %60, label %61

60:                                               ; preds = %57
  store ptr @.str.335, ptr %16, align 8
  br label %86

61:                                               ; preds = %57, %54
  %62 = load i32, ptr %15, align 4
  %63 = icmp uge i32 %62, 4114
  br i1 %63, label %64, label %68

64:                                               ; preds = %61
  %65 = load i32, ptr %15, align 4
  %66 = icmp ule i32 %65, 32512
  br i1 %66, label %67, label %68

67:                                               ; preds = %64
  store ptr @.str.334, ptr %16, align 8
  br label %85

68:                                               ; preds = %64, %61
  %69 = load i32, ptr %15, align 4
  %70 = icmp uge i32 %69, 32521
  br i1 %70, label %71, label %75

71:                                               ; preds = %68
  %72 = load i32, ptr %15, align 4
  %73 = icmp ule i32 %72, 32575
  br i1 %73, label %74, label %75

74:                                               ; preds = %71
  store ptr @.str.336, ptr %16, align 8
  br label %84

75:                                               ; preds = %71, %68
  %76 = load i32, ptr %15, align 4
  %77 = icmp uge i32 %76, 49152
  br i1 %77, label %78, label %82

78:                                               ; preds = %75
  %79 = load i32, ptr %15, align 4
  %80 = icmp ule i32 %79, 65535
  br i1 %80, label %81, label %82

81:                                               ; preds = %78
  store ptr @.str.337, ptr %16, align 8
  br label %83

82:                                               ; preds = %78, %75
  store ptr @.str.338, ptr %16, align 8
  br label %83

83:                                               ; preds = %82, %81
  br label %84

84:                                               ; preds = %83, %74
  br label %85

85:                                               ; preds = %84, %67
  br label %86

86:                                               ; preds = %85, %60
  br label %87

87:                                               ; preds = %86, %53
  br label %88

88:                                               ; preds = %87, %46, %45, %44, %43, %42, %41, %40, %39
  br label %89

89:                                               ; preds = %88, %27
  %90 = load ptr, ptr %10, align 8
  %91 = load i32, ptr @hf_ansi_637_trans_tele_id, align 4
  %92 = load ptr, ptr %8, align 8
  %93 = load i32, ptr %12, align 4
  %94 = load i32, ptr %15, align 4
  %95 = load ptr, ptr %16, align 8
  %96 = load i32, ptr %15, align 4
  %97 = call ptr (ptr, i32, ptr, i32, i32, i32, ptr, ...) @proto_tree_add_uint_format(ptr noundef %90, i32 noundef %91, ptr noundef %92, i32 noundef %93, i32 noundef 2, i32 noundef %94, ptr noundef @.str.342, ptr noundef %95, i32 noundef %96)
  %98 = load ptr, ptr %13, align 8
  %99 = load i32, ptr %14, align 4
  %100 = sext i32 %99 to i64
  %101 = load ptr, ptr %13, align 8
  %102 = call i64 @llvm.objectsize.i64.p0(ptr %101, i1 false, i1 true, i1 true)
  %103 = load ptr, ptr %16, align 8
  %104 = load i32, ptr %15, align 4
  %105 = call i32 (ptr, i64, i32, i64, ptr, ...) @__snprintf_chk(ptr noundef %98, i64 noundef %100, i32 noundef 2, i64 noundef %102, ptr noundef @.str.418, ptr noundef %103, i32 noundef %104)
  store i32 0, ptr %17, align 4
  br label %106

106:                                              ; preds = %89, %20
  call void @llvm.lifetime.end.p0(i64 8, ptr %16) #7
  call void @llvm.lifetime.end.p0(i64 4, ptr %15) #7
  %107 = load i32, ptr %17, align 4
  switch i32 %107, label %109 [
    i32 0, label %108
    i32 1, label %108
  ]

108:                                              ; preds = %106, %106
  ret void

109:                                              ; preds = %106
  unreachable
}