; Function Attrs: null_pointer_is_valid sspstrong uwtable
define internal void @trans_param_tele_id(ptr noundef %0, ptr noundef %1, ptr noundef %2, i32 noundef %3, i32 noundef %4, ptr noundef %5, i32 noundef %6) #0 {
  %.not = icmp eq i32 %3, 2
  br i1 %.not, label %10, label %8

8:                                                ; preds = %7
  %9 = tail call ptr @proto_tree_add_expert(ptr noundef %2, ptr noundef %1, ptr noundef nonnull @ei_ansi_637_unexpected_length, ptr noundef %0, i32 noundef %4, i32 noundef %3)
  br label %38

10:                                               ; preds = %7
  %11 = tail call zeroext i16 @tvb_get_ntohs(ptr noundef %0, i32 noundef %4)
  %12 = zext i16 %11 to i32
  store i32 %12, ptr @ansi_637_trans_tele_id, align 4
  %13 = tail call ptr @try_val_to_str(i32 noundef %12, ptr noundef nonnull @ansi_tele_id_strings)
  %14 = icmp eq ptr %13, null
  br i1 %14, label %15, label %33

15:                                               ; preds = %10
  switch i16 %11, label %23 [
    i16 1, label %33
    i16 4102, label %16
    i16 4103, label %17
    i16 32513, label %18
    i16 32514, label %19
    i16 32515, label %20
    i16 32520, label %21
    i16 32584, label %22
  ]

16:                                               ; preds = %15
  br label %33

17:                                               ; preds = %15
  br label %33

18:                                               ; preds = %15
  br label %33

19:                                               ; preds = %15
  br label %33

20:                                               ; preds = %15
  br label %33

21:                                               ; preds = %15
  br label %33

22:                                               ; preds = %15
  br label %33

23:                                               ; preds = %15
  %24 = add i16 %11, -2
  %or.cond = icmp ult i16 %24, 4094
  br i1 %or.cond, label %33, label %25

25:                                               ; preds = %23
  %26 = add i16 %11, -4104
  %or.cond3 = icmp ult i16 %26, 10
  br i1 %or.cond3, label %33, label %27

27:                                               ; preds = %25
  %28 = add i16 %11, -4114
  %or.cond5 = icmp ult i16 %28, 28399
  br i1 %or.cond5, label %33, label %29

29:                                               ; preds = %27
  %30 = add i16 %11, -32521
  %or.cond7 = icmp ult i16 %30, 55
  br i1 %or.cond7, label %33, label %31

31:                                               ; preds = %29
  %32 = icmp ugt i16 %11, -16385
  %.str.337..str.338 = select i1 %32, ptr @.str.337, ptr @.str.338
  br label %33

33:                                               ; preds = %31, %29, %27, %25, %23, %15, %16, %17, %18, %19, %20, %21, %22, %10
  %.0 = phi ptr [ @.str.333, %22 ], [ @.str.332, %21 ], [ @.str.331, %20 ], [ @.str.330, %19 ], [ @.str.329, %18 ], [ @.str.328, %17 ], [ @.str.327, %16 ], [ %13, %10 ], [ @.str.326, %15 ], [ @.str.334, %23 ], [ @.str.335, %25 ], [ @.str.334, %27 ], [ @.str.336, %29 ], [ %.str.337..str.338, %31 ]
  %34 = load i32, ptr @hf_ansi_637_trans_tele_id, align 4
  %35 = tail call ptr (ptr, i32, ptr, i32, i32, i32, ptr, ...) @proto_tree_add_uint_format(ptr noundef %2, i32 noundef %34, ptr noundef %0, i32 noundef %4, i32 noundef 2, i32 noundef %12, ptr noundef nonnull @.str.342, ptr noundef nonnull %.0, i32 noundef %12)
  %36 = sext i32 %6 to i64
  %37 = tail call i32 (ptr, i64, i32, i64, ptr, ...) @__snprintf_chk(ptr noundef %5, i64 noundef %36, i32 noundef 2, i64 noundef -1, ptr noundef nonnull @.str.418, ptr noundef nonnull %.0, i32 noundef %12)
  br label %38

38:                                               ; preds = %33, %8
  ret void
}